target datalayout = "e-m:e-p270:32:32-p271:32:32-p272:64:64-i64:64-i128:128-f80:128-n8:16:32:64-S128"
target triple = "x86_64-pc-linux-gnu"

%struct.__va_list_tag = type { i32, i32, ptr, ptr }

@.str = private unnamed_addr constant [15 x i8] c"CLICOLOR_FORCE\00", align 1
@.str.1 = private unnamed_addr constant [2 x i8] c"0\00", align 1
@.str.2 = private unnamed_addr constant [9 x i8] c"CLICOLOR\00", align 1
@.str.3 = private unnamed_addr constant [13 x i8] c"MAKE_TERMOUT\00", align 1
@.str.4 = private unnamed_addr constant [6 x i8] c"EMACS\00", align 1
@.str.5 = private unnamed_addr constant [5 x i8] c"TERM\00", align 1

; Function Attrs: nounwind uwtable
define internal i32 @kwsysTerminalStreamIsVT100(ptr noundef %0, i32 noundef %1, i32 noundef %2) #0 {
  %4 = alloca i32, align 4
  %5 = alloca ptr, align 8
  %6 = alloca i32, align 4
  %7 = alloca i32, align 4
  %8 = alloca ptr, align 8
  %9 = alloca i32, align 4
  %10 = alloca ptr, align 8
  %11 = alloca ptr, align 8
  %12 = alloca ptr, align 8
  %13 = alloca ptr, align 8
  %14 = alloca ptr, align 8
  store ptr %0, ptr %5, align 8, !tbaa !8
  store i32 %1, ptr %6, align 4, !tbaa !4
  store i32 %2, ptr %7, align 4, !tbaa !4
  call void @llvm.lifetime.start.p0(i64 8, ptr %8) #5
  %15 = call ptr @getenv(ptr noundef @.str) #5
  store ptr %15, ptr %8, align 8, !tbaa !11
  %16 = load ptr, ptr %8, align 8, !tbaa !11
  %17 = icmp ne ptr %16, null
  br i1 %17, label %18, label %28

18:                                               ; preds = %3
  %19 = load ptr, ptr %8, align 8, !tbaa !11
  %20 = load i8, ptr %19, align 1, !tbaa !13
  %21 = sext i8 %20 to i32
  %22 = icmp ne i32 %21, 0
  br i1 %22, label %23, label %28

23:                                               ; preds = %18
  %24 = load ptr, ptr %8, align 8, !tbaa !11
  %25 = call i32 @strcmp(ptr noundef %24, ptr noundef @.str.1) #6
  %26 = icmp ne i32 %25, 0
  br i1 %26, label %27, label %28

27:                                               ; preds = %23
  store i32 1, ptr %4, align 4
  store i32 1, ptr %9, align 4
  br label %29

28:                                               ; preds = %23, %18, %3
  store i32 0, ptr %9, align 4
  br label %29

29:                                               ; preds = %28, %27
  call void @llvm.lifetime.end.p0(i64 8, ptr %8) #5
  %30 = load i32, ptr %9, align 4
  switch i32 %30, label %114 [
    i32 0, label %31
    i32 1, label %112
  ]

31:                                               ; preds = %29
  call void @llvm.lifetime.start.p0(i64 8, ptr %10) #5
  %32 = call ptr @getenv(ptr noundef @.str.2) #5
  store ptr %32, ptr %10, align 8, !tbaa !11
  %33 = load ptr, ptr %10, align 8, !tbaa !11
  %34 = icmp ne ptr %33, null
  br i1 %34, label %35, label %40

35:                                               ; preds = %31
  %36 = load ptr, ptr %10, align 8, !tbaa !11
  %37 = call i32 @strcmp(ptr noundef %36, ptr noundef @.str.1) #6
  %38 = icmp eq i32 %37, 0
  br i1 %38, label %39, label %40

39:                                               ; preds = %35
  store i32 0, ptr %4, align 4
  store i32 1, ptr %9, align 4
  br label %41

40:                                               ; preds = %35, %31
  store i32 0, ptr %9, align 4
  br label %41

41:                                               ; preds = %40, %39
  call void @llvm.lifetime.end.p0(i64 8, ptr %10) #5
  %42 = load i32, ptr %9, align 4
  switch i32 %42, label %114 [
    i32 0, label %43
    i32 1, label %112
  ]

43:                                               ; preds = %41
  call void @llvm.lifetime.start.p0(i64 8, ptr %11) #5
  %44 = call ptr @getenv(ptr noundef @.str.3) #5
  store ptr %44, ptr %11, align 8, !tbaa !11
  %45 = load ptr, ptr %11, align 8, !tbaa !11
  %46 = icmp ne ptr %45, null
  br i1 %46, label %47, label %53

47:                                               ; preds = %43
  %48 = load ptr, ptr %11, align 8, !tbaa !11
  %49 = load i8, ptr %48, align 1, !tbaa !13
  %50 = sext i8 %49 to i32
  %51 = icmp ne i32 %50, 0
  br i1 %51, label %52, label %53

52:                                               ; preds = %47
  store i32 1, ptr %4, align 4
  store i32 1, ptr %9, align 4
  br label %54

53:                                               ; preds = %47, %43
  store i32 0, ptr %9, align 4
  br label %54

54:                                               ; preds = %53, %52
  call void @llvm.lifetime.end.p0(i64 8, ptr %11) #5
  %55 = load i32, ptr %9, align 4
  switch i32 %55, label %114 [
    i32 0, label %56
    i32 1, label %112
  ]

56:                                               ; preds = %54
  call void @llvm.lifetime.start.p0(i64 8, ptr %12) #5
  %57 = call ptr @getenv(ptr noundef @.str.4) #5
  store ptr %57, ptr %12, align 8, !tbaa !11
  %58 = load ptr, ptr %12, align 8, !tbaa !11
  %59 = icmp ne ptr %58, null
  br i1 %59, label %60, label %66

60:                                               ; preds = %56
  %61 = load ptr, ptr %12, align 8, !tbaa !11
  %62 = load i8, ptr %61, align 1, !tbaa !13
  %63 = sext i8 %62 to i32
  %64 = icmp eq i32 %63, 116
  br i1 %64, label %65, label %66

65:                                               ; preds = %60
  store i32 0, ptr %4, align 4
  store i32 1, ptr %9, align 4
  br label %67

66:                                               ; preds = %60, %56
  store i32 0, ptr %9, align 4
  br label %67

67:                                               ; preds = %66, %65
  call void @llvm.lifetime.end.p0(i64 8, ptr %12) #5
  %68 = load i32, ptr %9, align 4
  switch i32 %68, label %114 [
    i32 0, label %69
    i32 1, label %112
  ]

69:                                               ; preds = %67
  %70 = load i32, ptr %6, align 4, !tbaa !4
  %71 = icmp ne i32 %70, 0
  br i1 %71, label %106, label %72

72:                                               ; preds = %69
  call void @llvm.lifetime.start.p0(i64 8, ptr %13) #5
  store ptr null, ptr %13, align 8, !tbaa !14
  call void @llvm.lifetime.start.p0(i64 8, ptr %14) #5
  %73 = call ptr @getenv(ptr noundef @.str.5) #5
  store ptr %73, ptr %14, align 8, !tbaa !11
  %74 = load ptr, ptr %14, align 8, !tbaa !11
  %75 = icmp ne ptr %74, null
  br i1 %75, label %76, label %94

76:                                               ; preds = %72
  store ptr @kwsysTerminalVT100Names, ptr %13, align 8, !tbaa !14
  br label %77

77:                                               ; preds = %90, %76
  %78 = load ptr, ptr %13, align 8, !tbaa !14
  %79 = load ptr, ptr %78, align 8, !tbaa !11
  %80 = icmp ne ptr %79, null
  br i1 %80, label %81, label %87

81:                                               ; preds = %77
  %82 = load ptr, ptr %14, align 8, !tbaa !11
  %83 = load ptr, ptr %13, align 8, !tbaa !14
  %84 = load ptr, ptr %83, align 8, !tbaa !11
  %85 = call i32 @strcmp(ptr noundef %82, ptr noundef %84) #6
  %86 = icmp ne i32 %85, 0
  br label %87

87:                                               ; preds = %81, %77
  %88 = phi i1 [ false, %77 ], [ %86, %81 ]
  br i1 %88, label %89, label %93

89:                                               ; preds = %87
  br label %90

90:                                               ; preds = %89
  %91 = load ptr, ptr %13, align 8, !tbaa !14
  %92 = getelementptr inbounds nuw ptr, ptr %91, i32 1
  store ptr %92, ptr %13, align 8, !tbaa !14
  br label %77, !llvm.loop !16

93:                                               ; preds = %87
  br label %94

94:                                               ; preds = %93, %72
  %95 = load ptr, ptr %13, align 8, !tbaa !14
  %96 = icmp ne ptr %95, null
  br i1 %96, label %97, label %101

97:                                               ; preds = %94
  %98 = load ptr, ptr %13, align 8, !tbaa !14
  %99 = load ptr, ptr %98, align 8, !tbaa !11
  %100 = icmp ne ptr %99, null
  br i1 %100, label %102, label %101

101:                                              ; preds = %97, %94
  store i32 0, ptr %4, align 4
  store i32 1, ptr %9, align 4
  br label %103

102:                                              ; preds = %97
  store i32 0, ptr %9, align 4
  br label %103

103:                                              ; preds = %102, %101
  call void @llvm.lifetime.end.p0(i64 8, ptr %14) #5
  call void @llvm.lifetime.end.p0(i64 8, ptr %13) #5
  %104 = load i32, ptr %9, align 4
  switch i32 %104, label %114 [
    i32 0, label %105
    i32 1, label %112
  ]

105:                                              ; preds = %103
  br label %106

106:                                              ; preds = %105, %69
  %107 = load ptr, ptr %5, align 8, !tbaa !8
  %108 = call i32 @fileno(ptr noundef %107) #5
  %109 = call i32 @isatty(i32 noundef %108) #5
  %110 = icmp ne i32 %109, 0
  %111 = select i1 %110, i32 1, i32 0
  store i32 %111, ptr %4, align 4
  br label %112

112:                                              ; preds = %106, %103, %67, %54, %41, %29
  %113 = load i32, ptr %4, align 4
  ret i32 %113

114:                                              ; preds = %103, %67, %54, %41, %29
  unreachable
}

; Function Attrs: nounwind uwtable
define dso_local void @cmsysTerminal_cfprintf(i32 noundef %0, ptr noundef %1, ptr noundef %2, ...) #0 {
  %4 = alloca i32, align 4
  %5 = alloca ptr, align 8
  %6 = alloca ptr, align 8
  %7 = alloca i32, align 4
  %8 = alloca i32, align 4
  %9 = alloca i32, align 4
  %10 = alloca i32, align 4
  %11 = alloca [1 x %struct.__va_list_tag], align 16
  store i32 %0, ptr %4, align 4, !tbaa !4
  store ptr %1, ptr %5, align 8, !tbaa !8
  store ptr %2, ptr %6, align 8, !tbaa !11
  call void @llvm.lifetime.start.p0(i64 4, ptr %7) #5
  store i32 0, ptr %7, align 4, !tbaa !4
  call void @llvm.lifetime.start.p0(i64 4, ptr %8) #5
  store i32 0, ptr %8, align 4, !tbaa !4
  call void @llvm.lifetime.start.p0(i64 4, ptr %9) #5
  %12 = load i32, ptr %4, align 4, !tbaa !4
  %13 = and i32 %12, 2048
  store i32 %13, ptr %9, align 4, !tbaa !4
  call void @llvm.lifetime.start.p0(i64 4, ptr %10) #5
  %14 = load i32, ptr %4, align 4, !tbaa !4
  %15 = and i32 %14, 1024
  store i32 %15, ptr %10, align 4, !tbaa !4
  %16 = load i32, ptr %7, align 4, !tbaa !4
  %17 = icmp ne i32 %16, 0
  br i1 %17, label %27, label %18

18:                                               ; preds = %3
  %19 = load ptr, ptr %5, align 8, !tbaa !8
  %20 = load i32, ptr %9, align 4, !tbaa !4
  %21 = load i32, ptr %10, align 4, !tbaa !4
  %22 = call i32 @kwsysTerminalStreamIsVT100(ptr noundef %19, i32 noundef %20, i32 noundef %21)
  %23 = icmp ne i32 %22, 0
  br i1 %23, label %24, label %27

24:                                               ; preds = %18
  store i32 1, ptr %8, align 4, !tbaa !4
  %25 = load ptr, ptr %5, align 8, !tbaa !8
  %26 = load i32, ptr %4, align 4, !tbaa !4
  call void @kwsysTerminalSetVT100Color(ptr noundef %25, i32 noundef %26)
  br label %27

27:                                               ; preds = %24, %18, %3
  call void @llvm.lifetime.start.p0(i64 24, ptr %11) #5
  %28 = getelementptr inbounds [1 x %struct.__va_list_tag], ptr %11, i64 0, i64 0
  call void @llvm.va_start.p0(ptr %28)
  %29 = load ptr, ptr %5, align 8, !tbaa !8
  %30 = load ptr, ptr %6, align 8, !tbaa !11
  %31 = getelementptr inbounds [1 x %struct.__va_list_tag], ptr %11, i64 0, i64 0
  %32 = call i32 @vfprintf(ptr noundef %29, ptr noundef %30, ptr noundef %31) #5
  %33 = getelementptr inbounds [1 x %struct.__va_list_tag], ptr %11, i64 0, i64 0
  call void @llvm.va_end.p0(ptr %33)
  call void @llvm.lifetime.end.p0(i64 24, ptr %11) #5
  %34 = load i32, ptr %8, align 4, !tbaa !4
  %35 = icmp ne i32 %34, 0
  br i1 %35, label %36, label %38

36:                                               ; preds = %27
  %37 = load ptr, ptr %5, align 8, !tbaa !8
  call void @kwsysTerminalSetVT100Color(ptr noundef %37, i32 noundef 0)
  br label %38

38:                                               ; preds = %36, %27
  call void @llvm.lifetime.end.p0(i64 4, ptr %10) #5
  call void @llvm.lifetime.end.p0(i64 4, ptr %9) #5
  call void @llvm.lifetime.end.p0(i64 4, ptr %8) #5
  call void @llvm.lifetime.end.p0(i64 4, ptr %7) #5
  ret void
}