; Function Attrs: nounwind uwtable
define dso_local void @cmsysTerminal_cfprintf(i32 noundef %0, ptr noundef captures(none) %1, ptr noundef readonly captures(none) %2, ...) local_unnamed_addr #0 {
  %4 = alloca [1 x %struct.__va_list_tag], align 16
  %5 = and i32 %0, 2048
  %6 = tail call ptr @getenv(ptr noundef nonnull @.str) #9
  %.not.i = icmp eq ptr %6, null
  br i1 %.not.i, label %12, label %7

7:                                                ; preds = %3
  %8 = load i8, ptr %6, align 1, !tbaa !4
  switch i8 %8, label %kwsysTerminalStreamIsVT100.exit.thread15 [
    i8 0, label %12
    i8 48, label %.tail.i
  ]

.tail.i:                                          ; preds = %7
  %9 = getelementptr inbounds nuw i8, ptr %6, i64 1
  %10 = load i8, ptr %9, align 1
  %11 = icmp eq i8 %10, 0
  br i1 %11, label %12, label %kwsysTerminalStreamIsVT100.exit.thread15

12:                                               ; preds = %.tail.i, %7, %3
  %13 = tail call ptr @getenv(ptr noundef nonnull @.str.2) #9
  %.not37.i = icmp eq ptr %13, null
  br i1 %.not37.i, label %.tail81.thread.i, label %sub_082.i

sub_082.i:                                        ; preds = %12
  %14 = load i8, ptr %13, align 1
  %.not87.i = icmp eq i8 %14, 48
  br i1 %.not87.i, label %.tail81.i, label %.tail81.thread.i

.tail81.i:                                        ; preds = %sub_082.i
  %15 = getelementptr inbounds nuw i8, ptr %13, i64 1
  %16 = load i8, ptr %15, align 1
  %17 = icmp eq i8 %16, 0
  br i1 %17, label %.critedge, label %.tail81.thread.i

.tail81.thread.i:                                 ; preds = %.tail81.i, %sub_082.i, %12
  %18 = tail call ptr @getenv(ptr noundef nonnull @.str.3) #9
  %.not38.i = icmp eq ptr %18, null
  br i1 %.not38.i, label %21, label %19

19:                                               ; preds = %.tail81.thread.i
  %20 = load i8, ptr %18, align 1, !tbaa !4
  %.not39.i = icmp eq i8 %20, 0
  br i1 %.not39.i, label %21, label %kwsysTerminalStreamIsVT100.exit.thread15

21:                                               ; preds = %19, %.tail81.thread.i
  %22 = tail call ptr @getenv(ptr noundef nonnull @.str.4) #9
  %.not40.i = icmp eq ptr %22, null
  br i1 %.not40.i, label %26, label %23

23:                                               ; preds = %21
  %24 = load i8, ptr %22, align 1, !tbaa !4
  %25 = icmp eq i8 %24, 116
  br i1 %25, label %.critedge, label %26

26:                                               ; preds = %23, %21
  %.not41.i = icmp eq i32 %5, 0
  br i1 %.not41.i, label %27, label %kwsysTerminalStreamIsVT100.exit

27:                                               ; preds = %26
  %28 = tail call ptr @getenv(ptr noundef nonnull @.str.5) #9
  %.not42.i = icmp eq ptr %28, null
  br i1 %.not42.i, label %.critedge, label %.preheader.i

.preheader.i:                                     ; preds = %27, %31
  %29 = phi ptr [ %33, %31 ], [ @.str.6, %27 ]
  %.12485.i = phi ptr [ %32, %31 ], [ @kwsysTerminalVT100Names, %27 ]
  %30 = tail call i32 @strcmp(ptr noundef nonnull dereferenceable(1) %28, ptr noundef nonnull dereferenceable(1) %29) #10
  %.not44.i = icmp eq i32 %30, 0
  br i1 %.not44.i, label %.critedge.i, label %31

31:                                               ; preds = %.preheader.i
  %32 = getelementptr inbounds nuw i8, ptr %.12485.i, i64 8
  %33 = load ptr, ptr %32, align 8, !tbaa !7
  %.not43.i = icmp eq ptr %33, null
  br i1 %.not43.i, label %.critedge.i, label %.preheader.i, !llvm.loop !10

.critedge.i:                                      ; preds = %31, %.preheader.i
  %.124.lcssa.i = phi ptr [ getelementptr inbounds nuw (i8, ptr @kwsysTerminalVT100Names, i64 448), %31 ], [ %.12485.i, %.preheader.i ]
  %34 = load ptr, ptr %.124.lcssa.i, align 8, !tbaa !7
  %.not46.not.i = icmp eq ptr %34, null
  br i1 %.not46.not.i, label %.critedge, label %kwsysTerminalStreamIsVT100.exit

kwsysTerminalStreamIsVT100.exit:                  ; preds = %26, %.critedge.i
  %35 = tail call i32 @fileno(ptr noundef %1) #9
  %36 = tail call i32 @isatty(i32 noundef %35) #9
  %.not47.i.not = icmp eq i32 %36, 0
  br i1 %.not47.i.not, label %.critedge, label %kwsysTerminalStreamIsVT100.exit.thread15

kwsysTerminalStreamIsVT100.exit.thread15:         ; preds = %7, %19, %.tail.i, %kwsysTerminalStreamIsVT100.exit
  tail call fastcc void @kwsysTerminalSetVT100Color(ptr noundef %1, i32 noundef %0)
  call void @llvm.lifetime.start.p0(i64 24, ptr nonnull %4) #9
  call void @llvm.va_start.p0(ptr nonnull %4)
  %37 = call i32 @vfprintf(ptr noundef %1, ptr noundef %2, ptr noundef nonnull %4) #9
  call void @llvm.va_end.p0(ptr nonnull %4)
  call void @llvm.lifetime.end.p0(i64 24, ptr nonnull %4) #9
  %38 = call i64 @fwrite(ptr nonnull @.str.62, i64 4, i64 1, ptr %1)
  br label %40

.critedge:                                        ; preds = %27, %23, %.tail81.i, %.critedge.i, %kwsysTerminalStreamIsVT100.exit
  call void @llvm.lifetime.start.p0(i64 24, ptr nonnull %4) #9
  call void @llvm.va_start.p0(ptr nonnull %4)
  %39 = call i32 @vfprintf(ptr noundef %1, ptr noundef %2, ptr noundef nonnull %4) #9
  call void @llvm.va_end.p0(ptr nonnull %4)
  call void @llvm.lifetime.end.p0(i64 24, ptr nonnull %4) #9
  br label %40

40:                                               ; preds = %.critedge, %kwsysTerminalStreamIsVT100.exit.thread15
  ret void
}